ARM GAS  C:\Users\Rusla\AppData\Local\Temp\cchbXF1O.s 			page 1


   1              		.cpu cortex-m4
   2              		.arch armv7e-m
   3              		.fpu fpv4-sp-d16
   4              		.eabi_attribute 27, 1
   5              		.eabi_attribute 28, 1
   6              		.eabi_attribute 20, 1
   7              		.eabi_attribute 21, 1
   8              		.eabi_attribute 23, 3
   9              		.eabi_attribute 24, 1
  10              		.eabi_attribute 25, 1
  11              		.eabi_attribute 26, 1
  12              		.eabi_attribute 30, 1
  13              		.eabi_attribute 34, 1
  14              		.eabi_attribute 18, 4
  15              		.file	"main.c"
  16              		.text
  17              	.Ltext0:
  18              		.cfi_sections	.debug_frame
  19              		.file 1 "Core/Src/main.c"
  20              		.section	.text.GPIO_init__Memory,"ax",%progbits
  21              		.align	1
  22              		.global	GPIO_init__Memory
  23              		.syntax unified
  24              		.thumb
  25              		.thumb_func
  27              	GPIO_init__Memory:
  28              	.LFB130:
  29              		.file 2 "Core/Src/../Src/init.c"
   1:Core/Src/../Src/init.c **** #include "init.h"
   2:Core/Src/../Src/init.c **** #include <stdint.h>
   3:Core/Src/../Src/init.c **** void GPIO_init__Memory(void){};
  30              		.loc 2 3 29 view -0
  31              		.cfi_startproc
  32              		@ args = 0, pretend = 0, frame = 0
  33              		@ frame_needed = 0, uses_anonymous_args = 0
  34              		@ link register save eliminated.
  35              		.loc 2 3 30 view .LVU1
  36 0000 7047     		bx	lr
  37              		.cfi_endproc
  38              	.LFE130:
  40              		.section	.text.GPIO_InitLEDPB0,"ax",%progbits
  41              		.align	1
  42              		.global	GPIO_InitLEDPB0
  43              		.syntax unified
  44              		.thumb
  45              		.thumb_func
  47              	GPIO_InitLEDPB0:
  48              	.LFB131:
   4:Core/Src/../Src/init.c **** 
   5:Core/Src/../Src/init.c **** void GPIO_InitLEDPB0 (void)
   6:Core/Src/../Src/init.c **** {
  49              		.loc 2 6 1 view -0
  50              		.cfi_startproc
  51              		@ args = 0, pretend = 0, frame = 0
  52              		@ frame_needed = 0, uses_anonymous_args = 0
  53              		@ link register save eliminated.
   7:Core/Src/../Src/init.c ****    SET_BIT(RCC->AHB1ENR, RCC_AHB1ENR_GPIOBEN | RCC_AHB1ENR_GPIOCEN);
ARM GAS  C:\Users\Rusla\AppData\Local\Temp\cchbXF1O.s 			page 2


  54              		.loc 2 7 4 view .LVU3
  55 0000 0B4A     		ldr	r2, .L3
  56 0002 136B     		ldr	r3, [r2, #48]
  57 0004 43F00603 		orr	r3, r3, #6
  58 0008 1363     		str	r3, [r2, #48]
   8:Core/Src/../Src/init.c ****    SET_BIT(GPIOB->MODER, GPIO_MODER_MODE0_0);
  59              		.loc 2 8 4 view .LVU4
  60 000a 0A4B     		ldr	r3, .L3+4
  61 000c 1A68     		ldr	r2, [r3]
  62 000e 42F00102 		orr	r2, r2, #1
  63 0012 1A60     		str	r2, [r3]
   9:Core/Src/../Src/init.c ****    CLEAR_BIT(GPIOB->OTYPER,GPIO_OTYPER_OT_0);
  64              		.loc 2 9 4 view .LVU5
  65 0014 5A68     		ldr	r2, [r3, #4]
  66 0016 22F00102 		bic	r2, r2, #1
  67 001a 5A60     		str	r2, [r3, #4]
  10:Core/Src/../Src/init.c ****    SET_BIT(GPIOB->OSPEEDR, GPIO_OSPEEDER_OSPEEDR0_0);
  68              		.loc 2 10 4 view .LVU6
  69 001c 9A68     		ldr	r2, [r3, #8]
  70 001e 42F00102 		orr	r2, r2, #1
  71 0022 9A60     		str	r2, [r3, #8]
  11:Core/Src/../Src/init.c ****    SET_BIT(GPIOB->BSRR, GPIO_BSRR_BR0);
  72              		.loc 2 11 4 view .LVU7
  73 0024 9A69     		ldr	r2, [r3, #24]
  74 0026 42F48032 		orr	r2, r2, #65536
  75 002a 9A61     		str	r2, [r3, #24]
  12:Core/Src/../Src/init.c **** }
  76              		.loc 2 12 1 is_stmt 0 view .LVU8
  77 002c 7047     		bx	lr
  78              	.L4:
  79 002e 00BF     		.align	2
  80              	.L3:
  81 0030 00380240 		.word	1073887232
  82 0034 00040240 		.word	1073873920
  83              		.cfi_endproc
  84              	.LFE131:
  86              		.section	.text.GPIO_InitBtnPC12,"ax",%progbits
  87              		.align	1
  88              		.global	GPIO_InitBtnPC12
  89              		.syntax unified
  90              		.thumb
  91              		.thumb_func
  93              	GPIO_InitBtnPC12:
  94              	.LFB132:
  13:Core/Src/../Src/init.c **** 
  14:Core/Src/../Src/init.c **** void GPIO_InitBtnPC12(void)
  15:Core/Src/../Src/init.c **** {
  95              		.loc 2 15 1 is_stmt 1 view -0
  96              		.cfi_startproc
  97              		@ args = 0, pretend = 0, frame = 0
  98              		@ frame_needed = 0, uses_anonymous_args = 0
  99              		@ link register save eliminated.
  16:Core/Src/../Src/init.c ****     CLEAR_BIT(GPIOC->MODER, GPIO_MODER_MODE12_0);
 100              		.loc 2 16 5 view .LVU10
 101 0000 044B     		ldr	r3, .L6
 102 0002 1A68     		ldr	r2, [r3]
 103 0004 22F08072 		bic	r2, r2, #16777216
ARM GAS  C:\Users\Rusla\AppData\Local\Temp\cchbXF1O.s 			page 3


 104 0008 1A60     		str	r2, [r3]
  17:Core/Src/../Src/init.c ****     CLEAR_BIT(GPIOC->PUPDR, GPIO_PUPDR_PUPDR12_0);
 105              		.loc 2 17 5 view .LVU11
 106 000a DA68     		ldr	r2, [r3, #12]
 107 000c 22F08072 		bic	r2, r2, #16777216
 108 0010 DA60     		str	r2, [r3, #12]
  18:Core/Src/../Src/init.c **** }
 109              		.loc 2 18 1 is_stmt 0 view .LVU12
 110 0012 7047     		bx	lr
 111              	.L7:
 112              		.align	2
 113              	.L6:
 114 0014 00080240 		.word	1073874944
 115              		.cfi_endproc
 116              	.LFE132:
 118              		.section	.text.INIT,"ax",%progbits
 119              		.align	1
 120              		.global	INIT
 121              		.syntax unified
 122              		.thumb
 123              		.thumb_func
 125              	INIT:
 126              	.LFB133:
   1:Core/Src/main.c **** #include "../Inc/init.h"
   2:Core/Src/main.c **** #include "../Src/init.c"
   3:Core/Src/main.c **** #include <stdint.h>
   4:Core/Src/main.c **** 
   5:Core/Src/main.c **** uint8_t flag = 0;
   6:Core/Src/main.c **** 
   7:Core/Src/main.c **** 
   8:Core/Src/main.c **** void INIT (void)
   9:Core/Src/main.c **** {
 127              		.loc 1 9 1 is_stmt 1 view -0
 128              		.cfi_startproc
 129              		@ args = 0, pretend = 0, frame = 0
 130              		@ frame_needed = 0, uses_anonymous_args = 0
 131 0000 08B5     		push	{r3, lr}
 132              	.LCFI0:
 133              		.cfi_def_cfa_offset 8
 134              		.cfi_offset 3, -8
 135              		.cfi_offset 14, -4
  10:Core/Src/main.c ****     GPIO_InitLEDPB0 ();
 136              		.loc 1 10 5 view .LVU14
 137 0002 FFF7FEFF 		bl	GPIO_InitLEDPB0
 138              	.LVL0:
  11:Core/Src/main.c ****     GPIO_InitBtnPC12();
 139              		.loc 1 11 5 view .LVU15
 140 0006 FFF7FEFF 		bl	GPIO_InitBtnPC12
 141              	.LVL1:
  12:Core/Src/main.c **** }
 142              		.loc 1 12 1 is_stmt 0 view .LVU16
 143 000a 08BD     		pop	{r3, pc}
 144              		.cfi_endproc
 145              	.LFE133:
 147              		.section	.text.main,"ax",%progbits
 148              		.align	1
 149              		.global	main
ARM GAS  C:\Users\Rusla\AppData\Local\Temp\cchbXF1O.s 			page 4


 150              		.syntax unified
 151              		.thumb
 152              		.thumb_func
 154              	main:
 155              	.LFB134:
  13:Core/Src/main.c **** 
  14:Core/Src/main.c **** int main(void)
  15:Core/Src/main.c **** {
 156              		.loc 1 15 1 is_stmt 1 view -0
 157              		.cfi_startproc
 158              		@ Volatile: function does not return.
 159              		@ args = 0, pretend = 0, frame = 8
 160              		@ frame_needed = 0, uses_anonymous_args = 0
 161 0000 00B5     		push	{lr}
 162              	.LCFI1:
 163              		.cfi_def_cfa_offset 4
 164              		.cfi_offset 14, -4
 165 0002 83B0     		sub	sp, sp, #12
 166              	.LCFI2:
 167              		.cfi_def_cfa_offset 16
  16:Core/Src/main.c ****     INIT();
 168              		.loc 1 16 5 view .LVU18
 169 0004 FFF7FEFF 		bl	INIT
 170              	.LVL2:
 171 0008 19E0     		b	.L11
 172              	.L20:
  17:Core/Src/main.c ****     while(1)
  18:Core/Src/main.c ****     {
  19:Core/Src/main.c ****         if (BIT_READ(GPIOC_IDR, GPIO_PIN_12))
  20:Core/Src/main.c ****         {
  21:Core/Src/main.c ****             if (flag == 0)
 173              		.loc 1 21 13 view .LVU19
 174              		.loc 1 21 22 is_stmt 0 view .LVU20
 175 000a 154B     		ldr	r3, .L22
 176 000c 1B78     		ldrb	r3, [r3]	@ zero_extendqisi2
 177              		.loc 1 21 16 view .LVU21
 178 000e 2BB9     		cbnz	r3, .L13
  22:Core/Src/main.c ****             {
  23:Core/Src/main.c ****                 flag = 1;    
 179              		.loc 1 23 17 is_stmt 1 view .LVU22
 180              		.loc 1 23 22 is_stmt 0 view .LVU23
 181 0010 134B     		ldr	r3, .L22
 182 0012 0122     		movs	r2, #1
 183 0014 1A70     		strb	r2, [r3]
 184              	.L14:
  24:Core/Src/main.c ****             }
  25:Core/Src/main.c ****             else
  26:Core/Src/main.c ****             {
  27:Core/Src/main.c ****                 flag = 0;
  28:Core/Src/main.c ****             }
  29:Core/Src/main.c ****             for(volatile uint32_t i = 0; i < 250000; i++){}
 185              		.loc 1 29 13 is_stmt 1 view .LVU24
 186              	.LBB2:
 187              		.loc 1 29 17 view .LVU25
 188              		.loc 1 29 35 is_stmt 0 view .LVU26
 189 0016 0023     		movs	r3, #0
 190 0018 0193     		str	r3, [sp, #4]
ARM GAS  C:\Users\Rusla\AppData\Local\Temp\cchbXF1O.s 			page 5


 191              		.loc 1 29 13 view .LVU27
 192 001a 06E0     		b	.L15
 193              	.L13:
 194              	.LBE2:
  27:Core/Src/main.c ****             }
 195              		.loc 1 27 17 is_stmt 1 view .LVU28
  27:Core/Src/main.c ****             }
 196              		.loc 1 27 22 is_stmt 0 view .LVU29
 197 001c 104B     		ldr	r3, .L22
 198 001e 0022     		movs	r2, #0
 199 0020 1A70     		strb	r2, [r3]
 200 0022 F8E7     		b	.L14
 201              	.L16:
 202              	.LBB3:
 203              		.loc 1 29 59 is_stmt 1 discriminator 3 view .LVU30
 204              		.loc 1 29 55 discriminator 3 view .LVU31
 205 0024 019B     		ldr	r3, [sp, #4]
 206 0026 0133     		adds	r3, r3, #1
 207 0028 0193     		str	r3, [sp, #4]
 208              	.L15:
 209              		.loc 1 29 44 discriminator 1 view .LVU32
 210 002a 019A     		ldr	r2, [sp, #4]
 211 002c 0D4B     		ldr	r3, .L22+4
 212 002e 9A42     		cmp	r2, r3
 213 0030 F8D9     		bls	.L16
 214 0032 0AE0     		b	.L12
 215              	.L21:
 216              	.LBE3:
  30:Core/Src/main.c ****         }
  31:Core/Src/main.c ****         if (flag == 1)
  32:Core/Src/main.c ****         {
  33:Core/Src/main.c ****             SET_BIT(GPIOB->BSRR, GPIO_BSRR_BS0);
 217              		.loc 1 33 13 view .LVU33
 218 0034 0C4A     		ldr	r2, .L22+8
 219 0036 9369     		ldr	r3, [r2, #24]
 220 0038 43F00103 		orr	r3, r3, #1
 221 003c 9361     		str	r3, [r2, #24]
 222              	.L11:
  17:Core/Src/main.c ****     {
 223              		.loc 1 17 5 view .LVU34
  19:Core/Src/main.c ****         {
 224              		.loc 1 19 9 view .LVU35
  19:Core/Src/main.c ****         {
 225              		.loc 1 19 13 is_stmt 0 view .LVU36
 226 003e 0B4B     		ldr	r3, .L22+12
 227 0040 D3F81038 		ldr	r3, [r3, #2064]
  19:Core/Src/main.c ****         {
 228              		.loc 1 19 12 view .LVU37
 229 0044 13F4805F 		tst	r3, #4096
 230 0048 DFD1     		bne	.L20
 231              	.L12:
  31:Core/Src/main.c ****         {
 232              		.loc 1 31 9 is_stmt 1 view .LVU38
  31:Core/Src/main.c ****         {
 233              		.loc 1 31 18 is_stmt 0 view .LVU39
 234 004a 054B     		ldr	r3, .L22
 235 004c 1B78     		ldrb	r3, [r3]	@ zero_extendqisi2
ARM GAS  C:\Users\Rusla\AppData\Local\Temp\cchbXF1O.s 			page 6


  31:Core/Src/main.c ****         {
 236              		.loc 1 31 12 view .LVU40
 237 004e 012B     		cmp	r3, #1
 238 0050 F0D0     		beq	.L21
  34:Core/Src/main.c ****         }
  35:Core/Src/main.c ****         else
  36:Core/Src/main.c ****         {
  37:Core/Src/main.c ****             SET_BIT(GPIOB->BSRR, GPIO_BSRR_BR0);
 239              		.loc 1 37 13 is_stmt 1 view .LVU41
 240 0052 054A     		ldr	r2, .L22+8
 241 0054 9369     		ldr	r3, [r2, #24]
 242 0056 43F48033 		orr	r3, r3, #65536
 243 005a 9361     		str	r3, [r2, #24]
 244 005c EFE7     		b	.L11
 245              	.L23:
 246 005e 00BF     		.align	2
 247              	.L22:
 248 0060 00000000 		.word	flag
 249 0064 8FD00300 		.word	249999
 250 0068 00040240 		.word	1073873920
 251 006c 00000240 		.word	1073872896
 252              		.cfi_endproc
 253              	.LFE134:
 255              		.global	flag
 256              		.section	.bss.flag,"aw",%nobits
 259              	flag:
 260 0000 00       		.space	1
 261              		.text
 262              	.Letext0:
 263              		.file 3 "C:/programms/Tools/xpack-arm-none-eabi-gcc-13.2.1-1.1/arm-none-eabi/include/machine/_defa
 264              		.file 4 "C:/programms/Tools/xpack-arm-none-eabi-gcc-13.2.1-1.1/arm-none-eabi/include/sys/_stdint.h
 265              		.file 5 "C:\\programms\\Tools\\Laboratory_Practice\\CMSIS\\Devices\\STM32F4xx\\Inc\\STM32F429xx\\s
ARM GAS  C:\Users\Rusla\AppData\Local\Temp\cchbXF1O.s 			page 7

