ARM GAS  C:\Users\Rusla\AppData\Local\Temp\ccl7EhS2.s 			page 1


   1              		.cpu cortex-m4
   2              		.arch armv7e-m
   3              		.fpu fpv4-sp-d16
   4              		.eabi_attribute 27, 1
   5              		.eabi_attribute 28, 1
   6              		.eabi_attribute 20, 1
   7              		.eabi_attribute 21, 1
   8              		.eabi_attribute 23, 3
   9              		.eabi_attribute 24, 1
  10              		.eabi_attribute 25, 1
  11              		.eabi_attribute 26, 1
  12              		.eabi_attribute 30, 1
  13              		.eabi_attribute 34, 1
  14              		.eabi_attribute 18, 4
  15              		.file	"main.c"
  16              		.text
  17              	.Ltext0:
  18              		.cfi_sections	.debug_frame
  19              		.file 1 "Core/Scr/main.c"
  20              		.section	.text.INIT,"ax",%progbits
  21              		.align	1
  22              		.global	INIT
  23              		.syntax unified
  24              		.thumb
  25              		.thumb_func
  27              	INIT:
  28              	.LFB130:
   1:Core/Scr/main.c **** #include "init.h"
   2:Core/Scr/main.c **** #include "it_handlers.h"
   3:Core/Scr/main.c **** 
   4:Core/Scr/main.c **** void INIT (void)
   5:Core/Scr/main.c **** {
  29              		.loc 1 5 1 view -0
  30              		.cfi_startproc
  31              		@ args = 0, pretend = 0, frame = 0
  32              		@ frame_needed = 0, uses_anonymous_args = 0
  33 0000 08B5     		push	{r3, lr}
  34              	.LCFI0:
  35              		.cfi_def_cfa_offset 8
  36              		.cfi_offset 3, -8
  37              		.cfi_offset 14, -4
   6:Core/Scr/main.c ****     InitClock168MHz();
  38              		.loc 1 6 5 view .LVU1
  39 0002 FFF7FEFF 		bl	InitClock168MHz
  40              	.LVL0:
   7:Core/Scr/main.c ****     InitSystemTick1ms();
  41              		.loc 1 7 5 view .LVU2
  42 0006 FFF7FEFF 		bl	InitSystemTick1ms
  43              	.LVL1:
   8:Core/Scr/main.c ****     InitGPIOEXTI();
  44              		.loc 1 8 5 view .LVU3
  45 000a FFF7FEFF 		bl	InitGPIOEXTI
  46              	.LVL2:
   9:Core/Scr/main.c ****     InitTIM2();
  47              		.loc 1 9 5 view .LVU4
  48 000e FFF7FEFF 		bl	InitTIM2
  49              	.LVL3:
ARM GAS  C:\Users\Rusla\AppData\Local\Temp\ccl7EhS2.s 			page 2


  10:Core/Scr/main.c **** }
  50              		.loc 1 10 1 is_stmt 0 view .LVU5
  51 0012 08BD     		pop	{r3, pc}
  52              		.cfi_endproc
  53              	.LFE130:
  55              		.section	.text.main,"ax",%progbits
  56              		.align	1
  57              		.global	main
  58              		.syntax unified
  59              		.thumb
  60              		.thumb_func
  62              	main:
  63              	.LFB131:
  11:Core/Scr/main.c **** 
  12:Core/Scr/main.c **** int main(void) 
  13:Core/Scr/main.c **** {
  64              		.loc 1 13 1 is_stmt 1 view -0
  65              		.cfi_startproc
  66              		@ Volatile: function does not return.
  67              		@ args = 0, pretend = 0, frame = 0
  68              		@ frame_needed = 0, uses_anonymous_args = 0
  69 0000 08B5     		push	{r3, lr}
  70              	.LCFI1:
  71              		.cfi_def_cfa_offset 8
  72              		.cfi_offset 3, -8
  73              		.cfi_offset 14, -4
  14:Core/Scr/main.c ****     INIT(); 
  74              		.loc 1 14 5 view .LVU7
  75 0002 FFF7FEFF 		bl	INIT
  76              	.LVL4:
  15:Core/Scr/main.c ****     OFF_LEDs();
  77              		.loc 1 15 5 view .LVU8
  78 0006 FFF7FEFF 		bl	OFF_LEDs
  79              	.LVL5:
  16:Core/Scr/main.c ****     Running = 0;
  80              		.loc 1 16 5 view .LVU9
  81              		.loc 1 16 13 is_stmt 0 view .LVU10
  82 000a 0023     		movs	r3, #0
  83 000c 034A     		ldr	r2, .L6
  84 000e 1370     		strb	r3, [r2]
  17:Core/Scr/main.c ****     CurLEDI = 0;
  85              		.loc 1 17 5 is_stmt 1 view .LVU11
  86              		.loc 1 17 13 is_stmt 0 view .LVU12
  87 0010 034A     		ldr	r2, .L6+4
  88 0012 1370     		strb	r3, [r2]
  18:Core/Scr/main.c ****     SpeedI = 0;
  89              		.loc 1 18 5 is_stmt 1 view .LVU13
  90              		.loc 1 18 12 is_stmt 0 view .LVU14
  91 0014 034A     		ldr	r2, .L6+8
  92 0016 1370     		strb	r3, [r2]
  93              	.L4:
  19:Core/Scr/main.c **** 
  20:Core/Scr/main.c ****     while (1) 
  94              		.loc 1 20 5 is_stmt 1 view .LVU15
  21:Core/Scr/main.c ****     {
  22:Core/Scr/main.c ****         __WFI();
  95              		.loc 1 22 9 discriminator 1 view .LVU16
ARM GAS  C:\Users\Rusla\AppData\Local\Temp\ccl7EhS2.s 			page 3


  96              		.syntax unified
  97              	@ 22 "Core/Scr/main.c" 1
  98 0018 30BF     		wfi
  99              	@ 0 "" 2
  20:Core/Scr/main.c ****     {
 100              		.loc 1 20 11 view .LVU17
 101              		.thumb
 102              		.syntax unified
 103 001a FDE7     		b	.L4
 104              	.L7:
 105              		.align	2
 106              	.L6:
 107 001c 00000000 		.word	Running
 108 0020 00000000 		.word	CurLEDI
 109 0024 00000000 		.word	SpeedI
 110              		.cfi_endproc
 111              	.LFE131:
 113              		.text
 114              	.Letext0:
 115              		.file 2 "C:/programms/Tools/xpack-arm-none-eabi-gcc-13.2.1-1.1/arm-none-eabi/include/machine/_defa
 116              		.file 3 "C:/programms/Tools/xpack-arm-none-eabi-gcc-13.2.1-1.1/arm-none-eabi/include/sys/_stdint.h
 117              		.file 4 "Core/Inc/it_handlers.h"
 118              		.file 5 "Core/Inc/init.h"
ARM GAS  C:\Users\Rusla\AppData\Local\Temp\ccl7EhS2.s 			page 4


DEFINED SYMBOLS
                            *ABS*:00000000 main.c
C:\Users\Rusla\AppData\Local\Temp\ccl7EhS2.s:21     .text.INIT:00000000 $t
C:\Users\Rusla\AppData\Local\Temp\ccl7EhS2.s:27     .text.INIT:00000000 INIT
C:\Users\Rusla\AppData\Local\Temp\ccl7EhS2.s:56     .text.main:00000000 $t
C:\Users\Rusla\AppData\Local\Temp\ccl7EhS2.s:62     .text.main:00000000 main
C:\Users\Rusla\AppData\Local\Temp\ccl7EhS2.s:107    .text.main:0000001c $d

UNDEFINED SYMBOLS
InitClock168MHz
InitSystemTick1ms
InitGPIOEXTI
InitTIM2
OFF_LEDs
Running
CurLEDI
SpeedI
